; Function Attrs: mustprogress uwtable
define internal noundef ptr @"_ZZN4pkpy6FileIO9_registerEPNS_2VMEPNS_8PyObjectES4_EN3$_28__invokeES2_NS_8ArgsViewE"(ptr noundef %0, ptr readonly captures(none) %1, ptr readnone captures(none) %2) #3 align 2 {
  %4 = load ptr, ptr %1, align 8
  %5 = getelementptr inbounds nuw i8, ptr %4, i64 32
  %6 = load i8, ptr %5, align 8
  %7 = trunc i8 %6 to i1
  %8 = getelementptr inbounds nuw i8, ptr %1, i64 8
  %9 = load ptr, ptr %8, align 8
  %10 = ptrtoint ptr %9 to i64
  %11 = and i64 %10, 3
  %12 = icmp eq i64 %11, 2
  br i1 %7, label %13, label %22

13:                                               ; preds = %3
  br i1 %12, label %17, label %_ZN4pkpy7is_typeEPNS_8PyObjectENS_4TypeE.exit.i.i.i.i

_ZN4pkpy7is_typeEPNS_8PyObjectENS_4TypeE.exit.i.i.i.i: ; preds = %13
  %14 = getelementptr inbounds nuw i8, ptr %9, i64 10
  %15 = load i16, ptr %14, align 2
  %16 = icmp eq i16 %15, 5
  br i1 %16, label %_ZN4pkpy7py_castIRNS_3StrEEET_PNS_2VMEPNS_8PyObjectE.exit.i, label %17

17:                                               ; preds = %_ZN4pkpy7is_typeEPNS_8PyObjectENS_4TypeE.exit.i.i.i.i, %13
  %18 = getelementptr inbounds nuw i8, ptr %9, i64 10
  %19 = select i1 %12, ptr @_ZN4pkpy2VM6tp_intE, ptr %18
  %.sroa.0.0.copyload.i.i.i.i.i = load i16, ptr %19, align 2
  tail call void @_ZN4pkpy2VM9TypeErrorENS_4TypeES1_(ptr noundef nonnull align 8 dereferenceable(264913) %0, i16 5, i16 %.sroa.0.0.copyload.i.i.i.i.i)
  br label %_ZN4pkpy7py_castIRNS_3StrEEET_PNS_2VMEPNS_8PyObjectE.exit.i

_ZN4pkpy7py_castIRNS_3StrEEET_PNS_2VMEPNS_8PyObjectE.exit.i: ; preds = %17, %_ZN4pkpy7is_typeEPNS_8PyObjectENS_4TypeE.exit.i.i.i.i
  %20 = getelementptr inbounds nuw i8, ptr %9, i64 24
  %21 = getelementptr inbounds nuw i8, ptr %9, i64 32
  br label %"_ZZN4pkpy6FileIO9_registerEPNS_2VMEPNS_8PyObjectES4_ENK3$_2clES2_NS_8ArgsViewE.exit"

22:                                               ; preds = %3
  br i1 %12, label %26, label %_ZN4pkpy7is_typeEPNS_8PyObjectENS_4TypeE.exit.i.i.i10.i

_ZN4pkpy7is_typeEPNS_8PyObjectENS_4TypeE.exit.i.i.i10.i: ; preds = %22
  %23 = getelementptr inbounds nuw i8, ptr %9, i64 10
  %24 = load i16, ptr %23, align 2
  %25 = icmp eq i16 %24, 16
  br i1 %25, label %_ZN4pkpy7py_castIRNS_5BytesEEET_PNS_2VMEPNS_8PyObjectE.exit.i, label %26

26:                                               ; preds = %_ZN4pkpy7is_typeEPNS_8PyObjectENS_4TypeE.exit.i.i.i10.i, %22
  %27 = getelementptr inbounds nuw i8, ptr %9, i64 10
  %28 = select i1 %12, ptr @_ZN4pkpy2VM6tp_intE, ptr %27
  %.sroa.0.0.copyload.i.i.i.i11.i = load i16, ptr %28, align 2
  tail call void @_ZN4pkpy2VM9TypeErrorENS_4TypeES1_(ptr noundef nonnull align 8 dereferenceable(264913) %0, i16 16, i16 %.sroa.0.0.copyload.i.i.i.i11.i)
  br label %_ZN4pkpy7py_castIRNS_5BytesEEET_PNS_2VMEPNS_8PyObjectE.exit.i

_ZN4pkpy7py_castIRNS_5BytesEEET_PNS_2VMEPNS_8PyObjectE.exit.i: ; preds = %26, %_ZN4pkpy7is_typeEPNS_8PyObjectENS_4TypeE.exit.i.i.i10.i
  %29 = getelementptr inbounds nuw i8, ptr %9, i64 24
  %30 = getelementptr inbounds nuw i8, ptr %9, i64 32
  br label %"_ZZN4pkpy6FileIO9_registerEPNS_2VMEPNS_8PyObjectES4_ENK3$_2clES2_NS_8ArgsViewE.exit"

"_ZZN4pkpy6FileIO9_registerEPNS_2VMEPNS_8PyObjectES4_ENK3$_2clES2_NS_8ArgsViewE.exit": ; preds = %_ZN4pkpy7py_castIRNS_3StrEEET_PNS_2VMEPNS_8PyObjectE.exit.i, %_ZN4pkpy7py_castIRNS_5BytesEEET_PNS_2VMEPNS_8PyObjectE.exit.i
  %.sink5.in.i = phi ptr [ %30, %_ZN4pkpy7py_castIRNS_5BytesEEET_PNS_2VMEPNS_8PyObjectE.exit.i ], [ %20, %_ZN4pkpy7py_castIRNS_3StrEEET_PNS_2VMEPNS_8PyObjectE.exit.i ]
  %.sink.in.i = phi ptr [ %29, %_ZN4pkpy7py_castIRNS_5BytesEEET_PNS_2VMEPNS_8PyObjectE.exit.i ], [ %21, %_ZN4pkpy7py_castIRNS_3StrEEET_PNS_2VMEPNS_8PyObjectE.exit.i ]
  %.sink.i = load ptr, ptr %.sink.in.i, align 8
  %.sink5.i = load i32, ptr %.sink5.in.i, align 8
  %31 = getelementptr inbounds nuw i8, ptr %4, i64 24
  %32 = sext i32 %.sink5.i to i64
  %33 = load ptr, ptr %31, align 8
  %34 = tail call i64 @fwrite(ptr noundef %.sink.i, i64 noundef 1, i64 noundef %32, ptr noundef %33)
  %35 = getelementptr inbounds nuw i8, ptr %0, i64 264520
  %36 = load ptr, ptr %35, align 8
  ret ptr %36
}